target datalayout = "e-m:e-p270:32:32-p271:32:32-p272:64:64-i64:64-i128:128-f80:128-n8:16:32:64-S128"
target triple = "x86_64-unknown-linux-gnu"

%class.params_ref = type { ptr }
%class.proto_model = type <{ %class.model_core, %class.plugin_manager, ptr, %class.obj_hashtable, %class.ptr_vector.9, %class.model_evaluator, %class.th_rewriter, i8, [7 x i8] }>
%class.model_core = type { ptr, ptr, i32, [4 x i8], %class.obj_map, %class.obj_map.0, %class.ptr_vector, %class.ptr_vector, %class.ptr_vector }
%class.obj_map = type { %class.core_hashtable }
%class.core_hashtable = type <{ ptr, i32, i32, i32, [4 x i8] }>
%class.obj_map.0 = type { %class.core_hashtable.1 }
%class.core_hashtable.1 = type <{ ptr, i32, i32, i32, [4 x i8] }>
%class.ptr_vector = type { %class.vector }
%class.vector = type { ptr }
%class.plugin_manager = type { %class.ptr_vector.5, %class.ptr_vector.5 }
%class.ptr_vector.5 = type { %class.vector.6 }
%class.vector.6 = type { ptr }
%class.obj_hashtable = type { %class.core_hashtable.base.8, [4 x i8] }
%class.core_hashtable.base.8 = type <{ ptr, i32, i32, i32 }>
%class.ptr_vector.9 = type { %class.vector.10 }
%class.vector.10 = type { ptr }
%class.model_evaluator = type { ptr }
%class.th_rewriter = type { ptr, %class.params_ref }
%class.ref_vector_core = type { %class.ref_manager_wrapper, %class.ptr_vector.9 }
%class.ref_manager_wrapper = type { ptr }
%class.ref_vector = type { %class.ref_vector_core }
%class.simple_factory = type { %class.value_factory.base, [4 x i8], %class.obj_map.45, %class.ref_vector, %class.ref_vector.50, %class.ptr_vector.55 }
%class.value_factory.base = type <{ ptr, ptr, i32 }>
%class.obj_map.45 = type { %class.core_hashtable.46 }
%class.core_hashtable.46 = type <{ ptr, i32, i32, i32, [4 x i8] }>
%class.ref_vector.50 = type { %class.ref_vector_core.51 }
%class.ref_vector_core.51 = type { %class.ref_manager_wrapper.52, %class.ptr_vector.53 }
%class.ref_manager_wrapper.52 = type { ptr }
%class.ptr_vector.53 = type { %class.vector.54 }
%class.vector.54 = type { ptr }
%class.ptr_vector.55 = type { %class.vector.56 }
%class.vector.56 = type { ptr }

; Function Attrs: mustprogress nounwind uwtable
define linkonce_odr hidden noundef nonnull align 8 dereferenceable(8) ptr @_ZNK6vectorIP4sortLb0EjEixEj(ptr noundef nonnull align 8 dereferenceable(8) %this, i32 noundef %idx) #5 comdat align 2 {
entry:
  %this.addr = alloca ptr, align 8
  %idx.addr = alloca i32, align 4
  store ptr %this, ptr %this.addr, align 8
  store i32 %idx, ptr %idx.addr, align 4
  %this1 = load ptr, ptr %this.addr, align 8
  %m_data = getelementptr inbounds %class.vector.54, ptr %this1, i32 0, i32 0
  %0 = load ptr, ptr %m_data, align 8
  %1 = load i32, ptr %idx.addr, align 4
  %idxprom = zext i32 %1 to i64
  %arrayidx = getelementptr inbounds ptr, ptr %0, i64 %idxprom
  ret ptr %arrayidx
}

; Function Attrs: mustprogress uwtable
define linkonce_odr hidden noundef ptr @_ZNK15ref_vector_coreI4sort19ref_manager_wrapperIS0_11ast_managerEE3getEj(ptr noundef nonnull align 8 dereferenceable(16) %this, i32 noundef %idx) #4 comdat align 2 {
entry:
  %this.addr = alloca ptr, align 8
  %idx.addr = alloca i32, align 4
  store ptr %this, ptr %this.addr, align 8
  store i32 %idx, ptr %idx.addr, align 4
  %this1 = load ptr, ptr %this.addr, align 8
  %m_nodes = getelementptr inbounds %class.ref_vector_core.51, ptr %this1, i32 0, i32 1
  %0 = load i32, ptr %idx.addr, align 4
  %call = call noundef nonnull align 8 dereferenceable(8) ptr @_ZNK6vectorIP4sortLb0EjEixEj(ptr noundef nonnull align 8 dereferenceable(8) %m_nodes, i32 noundef %0)
  %1 = load ptr, ptr %call, align 8
  ret ptr %1
}

; Function Attrs: mustprogress uwtable
define linkonce_odr hidden noundef ptr @_ZNK14simple_factoryIjE8get_sortEj(ptr noundef nonnull align 8 dereferenceable(88) %this, i32 noundef %idx) #4 comdat align 2 {
entry:
  %this.addr = alloca ptr, align 8
  %idx.addr = alloca i32, align 4
  store ptr %this, ptr %this.addr, align 8
  store i32 %idx, ptr %idx.addr, align 4
  %this1 = load ptr, ptr %this.addr, align 8
  %m_sorts = getelementptr inbounds %class.simple_factory, ptr %this1, i32 0, i32 4
  %0 = load i32, ptr %idx.addr, align 4
  %call = call noundef ptr @_ZNK15ref_vector_coreI4sort19ref_manager_wrapperIS0_11ast_managerEE3getEj(ptr noundef nonnull align 8 dereferenceable(16) %m_sorts, i32 noundef %0)
  ret ptr %call
}

; Function Attrs: mustprogress uwtable
define hidden noundef ptr @_ZNK11proto_model22get_uninterpreted_sortEj(ptr noundef nonnull align 8 dereferenceable(177) %this, i32 noundef %idx) unnamed_addr #4 align 2 {
entry:
  %this.addr = alloca ptr, align 8
  %idx.addr = alloca i32, align 4
  store ptr %this, ptr %this.addr, align 8
  store i32 %idx, ptr %idx.addr, align 4
  %this1 = load ptr, ptr %this.addr, align 8
  %m_user_sort_factory = getelementptr inbounds %class.proto_model, ptr %this1, i32 0, i32 2
  %0 = load ptr, ptr %m_user_sort_factory, align 8
  %1 = load i32, ptr %idx.addr, align 4
  %call = call noundef ptr @_ZNK14simple_factoryIjE8get_sortEj(ptr noundef nonnull align 8 dereferenceable(88) %0, i32 noundef %1)
  ret ptr %call
}