; Function Attrs: mustprogress nofree norecurse nosync nounwind willreturn memory(read, inaccessiblemem: none) uwtable
define hidden noundef ptr @_ZNK11proto_model22get_uninterpreted_sortEj(ptr nocapture noundef nonnull readonly align 8 dereferenceable(177) %this, i32 noundef %idx) unnamed_addr #8 align 2 {
entry:
  %m_user_sort_factory = getelementptr inbounds i8, ptr %this, i64 112
  %0 = load ptr, ptr %m_user_sort_factory, align 8
  %m_nodes.i.i = getelementptr inbounds i8, ptr %0, i64 72
  %1 = load ptr, ptr %m_nodes.i.i, align 8
  %idxprom.i.i.i = zext i32 %idx to i64
  %arrayidx.i.i.i = getelementptr inbounds ptr, ptr %1, i64 %idxprom.i.i.i
  %2 = load ptr, ptr %arrayidx.i.i.i, align 8
  ret ptr %2
}